target datalayout = "e-m:e-p270:32:32-p271:32:32-p272:64:64-i64:64-i128:128-f80:128-n8:16:32:64-S128"
target triple = "x86_64-pc-linux-gnu"

%struct.uv_tcp_s = type { ptr, ptr, i32, ptr, [2 x ptr], %union.anon, ptr, i32, i64, ptr, ptr, ptr, ptr, %struct.uv__io_s, [2 x ptr], [2 x ptr], ptr, i32, i32, ptr }
%union.anon = type { [4 x ptr] }
%struct.uv__io_s = type { ptr, [2 x ptr], [2 x ptr], i32, i32, i32 }

; Function Attrs: nounwind uwtable
define dso_local i32 @uv__tcp_nodelay(i32 noundef %0, i32 noundef %1) #0 {
  %3 = alloca i32, align 4
  %4 = alloca i32, align 4
  %5 = alloca i32, align 4
  store i32 %0, ptr %4, align 4, !tbaa !11
  store i32 %1, ptr %5, align 4, !tbaa !11
  %6 = load i32, ptr %4, align 4, !tbaa !11
  %7 = call i32 @setsockopt(i32 noundef %6, i32 noundef 6, i32 noundef 1, ptr noundef %5, i32 noundef 4) #8
  %8 = icmp ne i32 %7, 0
  br i1 %8, label %9, label %13

9:                                                ; preds = %2
  %10 = call ptr @__errno_location() #9
  %11 = load i32, ptr %10, align 4, !tbaa !11
  %12 = sub nsw i32 0, %11
  store i32 %12, ptr %3, align 4
  br label %14

13:                                               ; preds = %2
  store i32 0, ptr %3, align 4
  br label %14

14:                                               ; preds = %13, %9
  %15 = load i32, ptr %3, align 4
  ret i32 %15
}

; Function Attrs: nounwind uwtable
define dso_local i32 @uv_tcp_nodelay(ptr noundef %0, i32 noundef %1) #0 {
  %3 = alloca i32, align 4
  %4 = alloca ptr, align 8
  %5 = alloca i32, align 4
  %6 = alloca i32, align 4
  %7 = alloca i32, align 4
  store ptr %0, ptr %4, align 8, !tbaa !9
  store i32 %1, ptr %5, align 4, !tbaa !11
  call void @llvm.lifetime.start.p0(i64 4, ptr %6) #8
  %8 = load ptr, ptr %4, align 8, !tbaa !9
  %9 = getelementptr inbounds nuw %struct.uv_tcp_s, ptr %8, i32 0, i32 13
  %10 = getelementptr inbounds nuw %struct.uv__io_s, ptr %9, i32 0, i32 5
  %11 = load i32, ptr %10, align 8, !tbaa !22
  %12 = icmp ne i32 %11, -1
  br i1 %12, label %13, label %25

13:                                               ; preds = %2
  %14 = load ptr, ptr %4, align 8, !tbaa !9
  %15 = getelementptr inbounds nuw %struct.uv_tcp_s, ptr %14, i32 0, i32 13
  %16 = getelementptr inbounds nuw %struct.uv__io_s, ptr %15, i32 0, i32 5
  %17 = load i32, ptr %16, align 8, !tbaa !22
  %18 = load i32, ptr %5, align 4, !tbaa !11
  %19 = call i32 @uv__tcp_nodelay(i32 noundef %17, i32 noundef %18)
  store i32 %19, ptr %6, align 4, !tbaa !11
  %20 = load i32, ptr %6, align 4, !tbaa !11
  %21 = icmp ne i32 %20, 0
  br i1 %21, label %22, label %24

22:                                               ; preds = %13
  %23 = load i32, ptr %6, align 4, !tbaa !11
  store i32 %23, ptr %3, align 4
  store i32 1, ptr %7, align 4
  br label %39

24:                                               ; preds = %13
  br label %25

25:                                               ; preds = %24, %2
  %26 = load i32, ptr %5, align 4, !tbaa !11
  %27 = icmp ne i32 %26, 0
  br i1 %27, label %28, label %33

28:                                               ; preds = %25
  %29 = load ptr, ptr %4, align 8, !tbaa !9
  %30 = getelementptr inbounds nuw %struct.uv_tcp_s, ptr %29, i32 0, i32 7
  %31 = load i32, ptr %30, align 8, !tbaa !16
  %32 = or i32 %31, 16777216
  store i32 %32, ptr %30, align 8, !tbaa !16
  br label %38

33:                                               ; preds = %25
  %34 = load ptr, ptr %4, align 8, !tbaa !9
  %35 = getelementptr inbounds nuw %struct.uv_tcp_s, ptr %34, i32 0, i32 7
  %36 = load i32, ptr %35, align 8, !tbaa !16
  %37 = and i32 %36, -16777217
  store i32 %37, ptr %35, align 8, !tbaa !16
  br label %38

38:                                               ; preds = %33, %28
  store i32 0, ptr %3, align 4
  store i32 1, ptr %7, align 4
  br label %39

39:                                               ; preds = %38, %22
  call void @llvm.lifetime.end.p0(i64 4, ptr %6) #8
  %40 = load i32, ptr %3, align 4
  ret i32 %40
}